; Function Attrs: mustprogress nofree norecurse nosync nounwind willreturn memory(read, inaccessiblemem: none) uwtable
define hidden noundef ptr @_ZNK13defined_names13get_name_declEj(ptr noundef nonnull readonly align 8 captures(none) dereferenceable(16) %0, i32 noundef %1) local_unnamed_addr #10 align 2 {
  %3 = load ptr, ptr %0, align 8, !tbaa !225
  %4 = getelementptr inbounds nuw i8, ptr %3, i64 96
  %5 = load ptr, ptr %4, align 8, !tbaa !20
  %6 = icmp eq ptr %5, null
  br i1 %6, label %_ZNK13defined_names4impl13get_num_namesEv.exit.thread, label %_ZNK13defined_names4impl13get_num_namesEv.exit

_ZNK13defined_names4impl13get_num_namesEv.exit:   ; preds = %2
  %7 = getelementptr inbounds i8, ptr %5, i64 -4
  %8 = load i32, ptr %7, align 4, !tbaa !30
  %9 = icmp ult i32 %1, %8
  br i1 %9, label %15, label %_ZNK13defined_names4impl13get_num_namesEv.exit.thread

_ZNK13defined_names4impl13get_num_namesEv.exit.thread: ; preds = %2, %_ZNK13defined_names4impl13get_num_namesEv.exit
  %.0.i.i.i7 = phi i32 [ %8, %_ZNK13defined_names4impl13get_num_namesEv.exit ], [ 0, %2 ]
  %10 = getelementptr inbounds nuw i8, ptr %0, i64 8
  %11 = load ptr, ptr %10, align 8, !tbaa !229
  %12 = sub nuw i32 %1, %.0.i.i.i7
  %13 = getelementptr inbounds nuw i8, ptr %11, i64 96
  %14 = load ptr, ptr %13, align 8, !tbaa !20
  br label %15

15:                                               ; preds = %_ZNK13defined_names4impl13get_num_namesEv.exit, %_ZNK13defined_names4impl13get_num_namesEv.exit.thread
  %.sink9 = phi i32 [ %12, %_ZNK13defined_names4impl13get_num_namesEv.exit.thread ], [ %1, %_ZNK13defined_names4impl13get_num_namesEv.exit ]
  %.sink = phi ptr [ %14, %_ZNK13defined_names4impl13get_num_namesEv.exit.thread ], [ %5, %_ZNK13defined_names4impl13get_num_namesEv.exit ]
  %16 = zext i32 %.sink9 to i64
  %17 = getelementptr inbounds nuw ptr, ptr %.sink, i64 %16
  %.pn = load ptr, ptr %17, align 8, !tbaa !39
  %.in = getelementptr inbounds nuw i8, ptr %.pn, i64 16
  %18 = load ptr, ptr %.in, align 8, !tbaa !169
  ret ptr %18
}